; Function Attrs: nounwind uwtable
define noalias nonnull ptr @l_Lean_Elab_liftMacroM___at_Lean_Elab_Command_NameGen_mkBaseNameWithSuffix_x27___spec__1___lambda__2(ptr noundef %0, ptr noundef %1, ptr noundef readnone captures(none) %2, ptr noundef %3) local_unnamed_addr #1 {
  %5 = tail call zeroext i8 @l_Lean_Environment_contains(ptr noundef %0, ptr noundef %1, i8 noundef zeroext 1) #4
  tail call void @lean_inc_heartbeat() #4
  %6 = tail call noalias ptr @mi_malloc_small(i64 noundef 24) #4
  %7 = icmp eq ptr %6, null
  br i1 %7, label %8, label %lean_alloc_ctor.exit

8:                                                ; preds = %4
  tail call void @lean_internal_panic_out_of_memory() #5
  unreachable

lean_alloc_ctor.exit:                             ; preds = %4
  %9 = zext i8 %5 to i64
  %10 = shl nuw nsw i64 %9, 1
  %11 = or disjoint i64 %10, 1
  %12 = inttoptr i64 %11 to ptr
  %13 = getelementptr inbounds nuw i8, ptr %6, i64 4
  store i32 1, ptr %6, align 4, !tbaa !4
  store i32 131096, ptr %13, align 4
  %14 = getelementptr inbounds nuw i8, ptr %6, i64 8
  store ptr %12, ptr %14, align 8, !tbaa !9
  %15 = getelementptr inbounds nuw i8, ptr %6, i64 16
  store ptr %3, ptr %15, align 8, !tbaa !9
  ret ptr %6
}